target datalayout = "e-m:e-p270:32:32-p271:32:32-p272:64:64-i64:64-i128:128-f80:128-n8:16:32:64-S128"
target triple = "x86_64-pc-linux-gnu"

%struct.Msat_Solver_t_ = type { i32, i32, ptr, ptr, double, double, ptr, ptr, double, double, ptr, ptr, ptr, i32, i32, ptr, ptr, ptr, ptr, ptr, ptr, i32, double, i32, double, ptr, ptr, ptr, ptr, i32, ptr, ptr, ptr, ptr, %struct.Msat_SolverStats_t_, i32, i32, i32, i32, i32, i32 }
%struct.Msat_SolverStats_t_ = type { i64, i64, i64, i64, i64, i64 }

; Function Attrs: nounwind uwtable
define i32 @Msat_SolverAddVar(ptr noundef %0, i32 noundef %1) #0 {
  %3 = alloca ptr, align 8
  %4 = alloca i32, align 4
  store ptr %0, ptr %3, align 8, !tbaa !3
  store i32 %1, ptr %4, align 4, !tbaa !8
  %5 = load ptr, ptr %3, align 8, !tbaa !3
  %6 = getelementptr inbounds nuw %struct.Msat_Solver_t_, ptr %5, i32 0, i32 13
  %7 = load i32, ptr %6, align 8, !tbaa !10
  %8 = load ptr, ptr %3, align 8, !tbaa !3
  %9 = getelementptr inbounds nuw %struct.Msat_Solver_t_, ptr %8, i32 0, i32 14
  %10 = load i32, ptr %9, align 4, !tbaa !25
  %11 = icmp eq i32 %7, %10
  br i1 %11, label %12, label %18

12:                                               ; preds = %2
  %13 = load ptr, ptr %3, align 8, !tbaa !3
  %14 = load ptr, ptr %3, align 8, !tbaa !3
  %15 = getelementptr inbounds nuw %struct.Msat_Solver_t_, ptr %14, i32 0, i32 14
  %16 = load i32, ptr %15, align 4, !tbaa !25
  %17 = mul nsw i32 2, %16
  call void @Msat_SolverResize(ptr noundef %13, i32 noundef %17)
  br label %18

18:                                               ; preds = %12, %2
  %19 = load i32, ptr %4, align 4, !tbaa !8
  %20 = load ptr, ptr %3, align 8, !tbaa !3
  %21 = getelementptr inbounds nuw %struct.Msat_Solver_t_, ptr %20, i32 0, i32 20
  %22 = load ptr, ptr %21, align 8, !tbaa !26
  %23 = load ptr, ptr %3, align 8, !tbaa !3
  %24 = getelementptr inbounds nuw %struct.Msat_Solver_t_, ptr %23, i32 0, i32 13
  %25 = load i32, ptr %24, align 8, !tbaa !10
  %26 = sext i32 %25 to i64
  %27 = getelementptr inbounds i32, ptr %22, i64 %26
  store i32 %19, ptr %27, align 4, !tbaa !8
  %28 = load ptr, ptr %3, align 8, !tbaa !3
  %29 = getelementptr inbounds nuw %struct.Msat_Solver_t_, ptr %28, i32 0, i32 13
  %30 = load i32, ptr %29, align 8, !tbaa !10
  %31 = add nsw i32 %30, 1
  store i32 %31, ptr %29, align 8, !tbaa !10
  ret i32 1
}