; Function Attrs: nounwind uwtable
define noundef i32 @Msat_SolverAddVar(ptr noundef %0, i32 noundef %1) local_unnamed_addr #0 {
  %3 = getelementptr inbounds nuw i8, ptr %0, i64 96
  %4 = load i32, ptr %3, align 8, !tbaa !3
  %5 = getelementptr inbounds nuw i8, ptr %0, i64 100
  %6 = load i32, ptr %5, align 4, !tbaa !22
  %7 = icmp eq i32 %4, %6
  br i1 %7, label %8, label %10

8:                                                ; preds = %2
  %9 = shl nsw i32 %4, 1
  tail call void @Msat_SolverResize(ptr noundef nonnull %0, i32 noundef %9) #8
  %.pre = load i32, ptr %3, align 8, !tbaa !3
  br label %10

10:                                               ; preds = %8, %2
  %11 = phi i32 [ %.pre, %8 ], [ %4, %2 ]
  %12 = getelementptr inbounds nuw i8, ptr %0, i64 144
  %13 = load ptr, ptr %12, align 8, !tbaa !23
  %14 = sext i32 %11 to i64
  %15 = getelementptr inbounds i32, ptr %13, i64 %14
  store i32 %1, ptr %15, align 4, !tbaa !24
  %16 = load i32, ptr %3, align 8, !tbaa !3
  %17 = add nsw i32 %16, 1
  store i32 %17, ptr %3, align 8, !tbaa !3
  ret i32 1
}